target datalayout = "e-m:e-p270:32:32-p271:32:32-p272:64:64-i64:64-i128:128-f80:128-n8:16:32:64-S128"
target triple = "x86_64-pc-linux-gnu"

%"class.rocksdb::RandomTransactionInserter" = type { ptr, %"struct.rocksdb::WriteOptions", %"struct.rocksdb::ReadOptions", i64, i16, i64, i64, i64, %"class.rocksdb::Status", ptr, ptr, i64, i64 }
%"struct.rocksdb::WriteOptions" = type <{ i8, i8, i8, i8, i8, i8, [2 x i8], i32, [4 x i8], i64, i8, [7 x i8] }>
%"struct.rocksdb::ReadOptions" = type { ptr, ptr, ptr, %"class.std::chrono::duration", %"class.std::chrono::duration", i32, i32, i64, %"class.std::optional", i8, i8, i8, i8, i8, i64, i64, ptr, ptr, i8, i8, i8, i8, i8, i8, i8, i8, %"class.std::function", i8, i8, i8, i8, i64 }
%"class.std::chrono::duration" = type { i64 }
%"class.std::optional" = type { %"struct.std::_Optional_base" }
%"struct.std::_Optional_base" = type { %"struct.std::_Optional_payload" }
%"struct.std::_Optional_payload" = type { %"struct.std::_Optional_payload_base.base", [7 x i8] }
%"struct.std::_Optional_payload_base.base" = type <{ %"union.std::_Optional_payload_base<unsigned long>::_Storage", i8 }>
%"union.std::_Optional_payload_base<unsigned long>::_Storage" = type { i64 }
%"class.std::function" = type { %"class.std::_Function_base", ptr }
%"class.std::_Function_base" = type { %"union.std::_Any_data", ptr }
%"union.std::_Any_data" = type { %"union.std::_Nocopy_types" }
%"union.std::_Nocopy_types" = type { { i64, i64 } }
%"class.rocksdb::Status" = type { i8, i8, i8, i8, i8, i8, %"class.std::unique_ptr" }
%"class.std::unique_ptr" = type { %"struct.std::__uniq_ptr_data" }
%"struct.std::__uniq_ptr_data" = type { %"class.std::__uniq_ptr_impl" }
%"class.std::__uniq_ptr_impl" = type { %"class.std::tuple" }
%"class.std::tuple" = type { %"struct.std::_Tuple_impl" }
%"struct.std::_Tuple_impl" = type { %"struct.std::_Head_base.1" }
%"struct.std::_Head_base.1" = type { ptr }

; Function Attrs: mustprogress nounwind uwtable
define linkonce_odr void @_ZNSt10_Head_baseILm1ESt14default_deleteIA_KcELb1EEC2Ev(ptr noundef nonnull align 1 dereferenceable(1) %0) unnamed_addr #3 comdat align 2 {
  %2 = alloca ptr, align 8
  store ptr %0, ptr %2, align 8, !tbaa !249
  ret void
}

; Function Attrs: mustprogress nounwind uwtable
define linkonce_odr void @_ZNSt10_Head_baseILm0EPKcLb0EEC2Ev(ptr noundef nonnull align 8 dereferenceable(8) %0) unnamed_addr #3 comdat align 2 {
  %2 = alloca ptr, align 8
  store ptr %0, ptr %2, align 8, !tbaa !246
  %3 = load ptr, ptr %2, align 8
  %4 = getelementptr inbounds nuw %"struct.std::_Head_base.1", ptr %3, i32 0, i32 0
  store ptr null, ptr %4, align 8, !tbaa !248
  ret void
}

; Function Attrs: mustprogress uwtable
define linkonce_odr void @_ZNSt11_Tuple_implILm1EJSt14default_deleteIA_KcEEEC2Ev(ptr noundef nonnull align 1 dereferenceable(1) %0) unnamed_addr #4 comdat align 2 {
  %2 = alloca ptr, align 8
  store ptr %0, ptr %2, align 8, !tbaa !244
  %3 = load ptr, ptr %2, align 8
  call void @_ZNSt10_Head_baseILm1ESt14default_deleteIA_KcELb1EEC2Ev(ptr noundef nonnull align 1 dereferenceable(1) %3)
  ret void
}

; Function Attrs: mustprogress uwtable
define linkonce_odr void @_ZNSt11_Tuple_implILm0EJPKcSt14default_deleteIA_S0_EEEC2Ev(ptr noundef nonnull align 8 dereferenceable(8) %0) unnamed_addr #4 comdat align 2 {
  %2 = alloca ptr, align 8
  store ptr %0, ptr %2, align 8, !tbaa !242
  %3 = load ptr, ptr %2, align 8
  call void @_ZNSt11_Tuple_implILm1EJSt14default_deleteIA_KcEEEC2Ev(ptr noundef nonnull align 1 dereferenceable(1) %3)
  call void @_ZNSt10_Head_baseILm0EPKcLb0EEC2Ev(ptr noundef nonnull align 8 dereferenceable(8) %3)
  ret void
}

; Function Attrs: mustprogress nounwind uwtable
define linkonce_odr void @_ZNSt5tupleIJPKcSt14default_deleteIA_S0_EEEC2ILb1ETnNSt9enable_ifIXclsr17_TupleConstraintsIXT_ES1_S4_EE37__is_implicitly_default_constructibleEEbE4typeELb1EEEv(ptr noundef nonnull align 8 dereferenceable(8) %0) unnamed_addr #3 comdat align 2 personality ptr @__gxx_personality_v0 {
  %2 = alloca ptr, align 8
  store ptr %0, ptr %2, align 8, !tbaa !240
  %3 = load ptr, ptr %2, align 8
  invoke void @_ZNSt11_Tuple_implILm0EJPKcSt14default_deleteIA_S0_EEEC2Ev(ptr noundef nonnull align 8 dereferenceable(8) %3)
          to label %4 unwind label %5

4:                                                ; preds = %1
  ret void

5:                                                ; preds = %1
  %6 = landingpad { ptr, i32 }
          catch ptr null
  %7 = extractvalue { ptr, i32 } %6, 0
  call void @__clang_call_terminate(ptr %7) #21
  unreachable
}

; Function Attrs: mustprogress nounwind uwtable
define linkonce_odr void @_ZNSt15__uniq_ptr_implIKcSt14default_deleteIA_S0_EEC2Ev(ptr noundef nonnull align 8 dereferenceable(8) %0) unnamed_addr #3 comdat align 2 {
  %2 = alloca ptr, align 8
  store ptr %0, ptr %2, align 8, !tbaa !238
  %3 = load ptr, ptr %2, align 8
  %4 = getelementptr inbounds nuw %"class.std::__uniq_ptr_impl", ptr %3, i32 0, i32 0
  call void @_ZNSt5tupleIJPKcSt14default_deleteIA_S0_EEEC2ILb1ETnNSt9enable_ifIXclsr17_TupleConstraintsIXT_ES1_S4_EE37__is_implicitly_default_constructibleEEbE4typeELb1EEEv(ptr noundef nonnull align 8 dereferenceable(8) %4) #20
  ret void
}

; Function Attrs: mustprogress nounwind uwtable
define linkonce_odr noundef zeroext i1 @_ZNKSt14_Function_base8_M_emptyEv(ptr noundef nonnull align 8 dereferenceable(24) %0) #3 comdat align 2 {
  %2 = alloca ptr, align 8
  store ptr %0, ptr %2, align 8, !tbaa !230
  %3 = load ptr, ptr %2, align 8
  %4 = getelementptr inbounds nuw %"class.std::_Function_base", ptr %3, i32 0, i32 1
  %5 = load ptr, ptr %4, align 8, !tbaa !229
  %6 = icmp ne ptr %5, null
  %7 = xor i1 %6, true
  ret i1 %7
}

; Function Attrs: inlinehint mustprogress nounwind uwtable
define linkonce_odr void @_ZNSt15__uniq_ptr_dataIKcSt14default_deleteIA_S0_ELb1ELb1EEC2Ev(ptr noundef nonnull align 8 dereferenceable(8) %0) unnamed_addr #1 comdat align 2 {
  %2 = alloca ptr, align 8
  store ptr %0, ptr %2, align 8, !tbaa !236
  %3 = load ptr, ptr %2, align 8
  call void @_ZNSt15__uniq_ptr_implIKcSt14default_deleteIA_S0_EEC2Ev(ptr noundef nonnull align 8 dereferenceable(8) %3) #20
  ret void
}

; Function Attrs: mustprogress nounwind uwtable
define linkonce_odr noundef zeroext i1 @_ZNKSt8functionIFbRKN7rocksdb15TablePropertiesEEEcvbEv(ptr noundef nonnull align 8 dereferenceable(32) %0) #3 comdat align 2 personality ptr @__gxx_personality_v0 {
  %2 = alloca ptr, align 8
  store ptr %0, ptr %2, align 8, !tbaa !226
  %3 = load ptr, ptr %2, align 8
  %4 = invoke noundef zeroext i1 @_ZNKSt14_Function_base8_M_emptyEv(ptr noundef nonnull align 8 dereferenceable(24) %3)
          to label %5 unwind label %7

5:                                                ; preds = %1
  %6 = xor i1 %4, true
  ret i1 %6

7:                                                ; preds = %1
  %8 = landingpad { ptr, i32 }
          catch ptr null
  %9 = extractvalue { ptr, i32 } %8, 0
  call void @__clang_call_terminate(ptr %9) #21
  unreachable
}

; Function Attrs: mustprogress nounwind uwtable
define linkonce_odr void @_ZNSt14_Function_baseC2Ev(ptr noundef nonnull align 8 dereferenceable(24) %0) unnamed_addr #3 comdat align 2 {
  %2 = alloca ptr, align 8
  store ptr %0, ptr %2, align 8, !tbaa !230
  %3 = load ptr, ptr %2, align 8
  %4 = getelementptr inbounds nuw %"class.std::_Function_base", ptr %3, i32 0, i32 0
  store ptr null, ptr %4, align 8, !tbaa !157
  %5 = getelementptr inbounds nuw %"class.std::_Function_base", ptr %3, i32 0, i32 1
  store ptr null, ptr %5, align 8, !tbaa !229
  ret void
}

; Function Attrs: mustprogress nounwind uwtable
define linkonce_odr void @_ZNSt14_Function_baseD2Ev(ptr noundef nonnull align 8 dereferenceable(24) %0) unnamed_addr #3 comdat align 2 personality ptr @__gxx_personality_v0 {
  %2 = alloca ptr, align 8
  store ptr %0, ptr %2, align 8, !tbaa !230
  %3 = load ptr, ptr %2, align 8
  %4 = getelementptr inbounds nuw %"class.std::_Function_base", ptr %3, i32 0, i32 1
  %5 = load ptr, ptr %4, align 8, !tbaa !229
  %6 = icmp ne ptr %5, null
  br i1 %6, label %7, label %14

7:                                                ; preds = %1
  %8 = getelementptr inbounds nuw %"class.std::_Function_base", ptr %3, i32 0, i32 1
  %9 = load ptr, ptr %8, align 8, !tbaa !229
  %10 = getelementptr inbounds nuw %"class.std::_Function_base", ptr %3, i32 0, i32 0
  %11 = getelementptr inbounds nuw %"class.std::_Function_base", ptr %3, i32 0, i32 0
  %12 = invoke noundef zeroext i1 %9(ptr noundef nonnull align 8 dereferenceable(16) %10, ptr noundef nonnull align 8 dereferenceable(16) %11, i32 noundef 3)
          to label %13 unwind label %15

13:                                               ; preds = %7
  br label %14

14:                                               ; preds = %13, %1
  ret void

15:                                               ; preds = %7
  %16 = landingpad { ptr, i32 }
          catch ptr null
  %17 = extractvalue { ptr, i32 } %16, 0
  call void @__clang_call_terminate(ptr %17) #21
  unreachable
}

; Function Attrs: mustprogress nounwind uwtable
define linkonce_odr void @_ZNSt10unique_ptrIA_KcSt14default_deleteIS1_EEC2IS3_vEEDn(ptr noundef nonnull align 8 dereferenceable(8) %0, ptr %1) unnamed_addr #3 comdat align 2 {
  %3 = alloca ptr, align 8
  %4 = alloca ptr, align 8
  store ptr %0, ptr %3, align 8, !tbaa !232
  store ptr %1, ptr %4, align 8, !tbaa !234
  %5 = load ptr, ptr %3, align 8
  %6 = getelementptr inbounds nuw %"class.std::unique_ptr", ptr %5, i32 0, i32 0
  call void @llvm.memset.p0.i64(ptr align 8 %6, i8 0, i64 8, i1 false)
  call void @_ZNSt15__uniq_ptr_dataIKcSt14default_deleteIA_S0_ELb1ELb1EEC2Ev(ptr noundef nonnull align 8 dereferenceable(8) %6) #20
  ret void
}

; Function Attrs: mustprogress uwtable
define linkonce_odr void @_ZNSt8functionIFbRKN7rocksdb15TablePropertiesEEEC2ERKS5_(ptr noundef nonnull align 8 dereferenceable(32) %0, ptr noundef nonnull align 8 dereferenceable(32) %1) unnamed_addr #4 comdat align 2 personality ptr @__gxx_personality_v0 {
  %3 = alloca ptr, align 8
  %4 = alloca ptr, align 8
  %5 = alloca ptr, align 8
  %6 = alloca i32, align 4
  store ptr %0, ptr %3, align 8, !tbaa !226
  store ptr %1, ptr %4, align 8, !tbaa !226
  %7 = load ptr, ptr %3, align 8
  %8 = getelementptr inbounds i8, ptr %7, i64 0
  call void @llvm.memset.p0.i64(ptr align 8 %8, i8 0, i64 24, i1 false)
  call void @_ZNSt14_Function_baseC2Ev(ptr noundef nonnull align 8 dereferenceable(24) %7) #20
  %9 = getelementptr inbounds nuw %"class.std::function", ptr %7, i32 0, i32 1
  store ptr null, ptr %9, align 8, !tbaa !228
  %10 = load ptr, ptr %4, align 8, !tbaa !226
  %11 = call noundef zeroext i1 @_ZNKSt8functionIFbRKN7rocksdb15TablePropertiesEEEcvbEv(ptr noundef nonnull align 8 dereferenceable(32) %10) #20
  br i1 %11, label %12, label %33

12:                                               ; preds = %2
  %13 = load ptr, ptr %4, align 8, !tbaa !226
  %14 = getelementptr inbounds nuw %"class.std::_Function_base", ptr %13, i32 0, i32 1
  %15 = load ptr, ptr %14, align 8, !tbaa !229
  %16 = getelementptr inbounds nuw %"class.std::_Function_base", ptr %7, i32 0, i32 0
  %17 = load ptr, ptr %4, align 8, !tbaa !226
  %18 = getelementptr inbounds nuw %"class.std::_Function_base", ptr %17, i32 0, i32 0
  %19 = invoke noundef zeroext i1 %15(ptr noundef nonnull align 8 dereferenceable(16) %16, ptr noundef nonnull align 8 dereferenceable(16) %18, i32 noundef 2)
          to label %20 unwind label %29

20:                                               ; preds = %12
  %21 = load ptr, ptr %4, align 8, !tbaa !226
  %22 = getelementptr inbounds nuw %"class.std::function", ptr %21, i32 0, i32 1
  %23 = load ptr, ptr %22, align 8, !tbaa !228
  %24 = getelementptr inbounds nuw %"class.std::function", ptr %7, i32 0, i32 1
  store ptr %23, ptr %24, align 8, !tbaa !228
  %25 = load ptr, ptr %4, align 8, !tbaa !226
  %26 = getelementptr inbounds nuw %"class.std::_Function_base", ptr %25, i32 0, i32 1
  %27 = load ptr, ptr %26, align 8, !tbaa !229
  %28 = getelementptr inbounds nuw %"class.std::_Function_base", ptr %7, i32 0, i32 1
  store ptr %27, ptr %28, align 8, !tbaa !229
  br label %33

29:                                               ; preds = %12
  %30 = landingpad { ptr, i32 }
          cleanup
  %31 = extractvalue { ptr, i32 } %30, 0
  store ptr %31, ptr %5, align 8
  %32 = extractvalue { ptr, i32 } %30, 1
  store i32 %32, ptr %6, align 4
  call void @_ZNSt14_Function_baseD2Ev(ptr noundef nonnull align 8 dereferenceable(24) %7) #20
  br label %34

33:                                               ; preds = %20, %2
  ret void

34:                                               ; preds = %29
  %35 = load ptr, ptr %5, align 8
  %36 = load i32, ptr %6, align 4
  %37 = insertvalue { ptr, i32 } poison, ptr %35, 0
  %38 = insertvalue { ptr, i32 } %37, i32 %36, 1
  resume { ptr, i32 } %38
}

; Function Attrs: inlinehint mustprogress nounwind uwtable
define linkonce_odr void @_ZN7rocksdb11ReadOptionsD2Ev(ptr noundef nonnull align 8 dereferenceable(168) %0) unnamed_addr #1 comdat align 2 {
  %2 = alloca ptr, align 8
  store ptr %0, ptr %2, align 8, !tbaa !23
  %3 = load ptr, ptr %2, align 8
  %4 = getelementptr inbounds nuw %"struct.rocksdb::ReadOptions", ptr %3, i32 0, i32 26
  call void @_ZNSt14_Function_baseD2Ev(ptr noundef nonnull align 8 dereferenceable(32) %4) #20
  ret void
}

; Function Attrs: mustprogress nounwind uwtable
define linkonce_odr void @_ZN7rocksdb6StatusC2Ev(ptr noundef nonnull align 8 dereferenceable(16) %0) unnamed_addr #3 comdat align 2 {
  %2 = alloca ptr, align 8
  store ptr %0, ptr %2, align 8, !tbaa !67
  %3 = load ptr, ptr %2, align 8
  %4 = getelementptr inbounds nuw %"class.rocksdb::Status", ptr %3, i32 0, i32 0
  store i8 0, ptr %4, align 8, !tbaa !69
  %5 = getelementptr inbounds nuw %"class.rocksdb::Status", ptr %3, i32 0, i32 1
  store i8 0, ptr %5, align 1, !tbaa !70
  %6 = getelementptr inbounds nuw %"class.rocksdb::Status", ptr %3, i32 0, i32 2
  store i8 0, ptr %6, align 2, !tbaa !71
  %7 = getelementptr inbounds nuw %"class.rocksdb::Status", ptr %3, i32 0, i32 3
  store i8 0, ptr %7, align 1, !tbaa !72
  %8 = getelementptr inbounds nuw %"class.rocksdb::Status", ptr %3, i32 0, i32 4
  store i8 0, ptr %8, align 4, !tbaa !73
  %9 = getelementptr inbounds nuw %"class.rocksdb::Status", ptr %3, i32 0, i32 5
  store i8 0, ptr %9, align 1, !tbaa !74
  %10 = getelementptr inbounds nuw %"class.rocksdb::Status", ptr %3, i32 0, i32 6
  call void @_ZNSt10unique_ptrIA_KcSt14default_deleteIS1_EEC2IS3_vEEDn(ptr noundef nonnull align 8 dereferenceable(8) %10, ptr null) #20
  ret void
}

; Function Attrs: inlinehint mustprogress uwtable
define linkonce_odr void @_ZN7rocksdb11ReadOptionsC2ERKS0_(ptr noundef nonnull align 8 dereferenceable(168) %0, ptr noundef nonnull align 8 dereferenceable(168) %1) unnamed_addr #6 comdat align 2 {
  %3 = alloca ptr, align 8
  %4 = alloca ptr, align 8
  store ptr %0, ptr %3, align 8, !tbaa !23
  store ptr %1, ptr %4, align 8, !tbaa !23
  %5 = load ptr, ptr %3, align 8
  %6 = getelementptr inbounds nuw %"struct.rocksdb::ReadOptions", ptr %5, i32 0, i32 0
  %7 = load ptr, ptr %4, align 8
  %8 = getelementptr inbounds nuw %"struct.rocksdb::ReadOptions", ptr %7, i32 0, i32 0
  call void @llvm.memcpy.p0.p0.i64(ptr align 8 %6, ptr align 8 %8, i64 120, i1 false)
  %9 = getelementptr inbounds nuw %"struct.rocksdb::ReadOptions", ptr %5, i32 0, i32 26
  %10 = load ptr, ptr %4, align 8, !tbaa !23
  %11 = getelementptr inbounds nuw %"struct.rocksdb::ReadOptions", ptr %10, i32 0, i32 26
  call void @_ZNSt8functionIFbRKN7rocksdb15TablePropertiesEEEC2ERKS5_(ptr noundef nonnull align 8 dereferenceable(32) %9, ptr noundef nonnull align 8 dereferenceable(32) %11)
  %12 = getelementptr inbounds nuw %"struct.rocksdb::ReadOptions", ptr %5, i32 0, i32 27
  %13 = load ptr, ptr %4, align 8
  %14 = getelementptr inbounds nuw %"struct.rocksdb::ReadOptions", ptr %13, i32 0, i32 27
  call void @llvm.memcpy.p0.p0.i64(ptr align 8 %12, ptr align 8 %14, i64 16, i1 false)
  ret void
}

; Function Attrs: mustprogress uwtable
define void @_ZN7rocksdb25RandomTransactionInserterC2EPNS_8Random64ERKNS_12WriteOptionsERKNS_11ReadOptionsEmtmm(ptr noundef nonnull align 8 dereferenceable(296) %0, ptr noundef %1, ptr noundef nonnull align 8 dereferenceable(25) %2, ptr noundef nonnull align 8 dereferenceable(168) %3, i64 noundef %4, i16 noundef zeroext %5, i64 noundef %6, i64 noundef %7) unnamed_addr #4 align 2 personality ptr @__gxx_personality_v0 {
  %9 = alloca ptr, align 8
  %10 = alloca ptr, align 8
  %11 = alloca ptr, align 8
  %12 = alloca ptr, align 8
  %13 = alloca i64, align 8
  %14 = alloca i16, align 2
  %15 = alloca i64, align 8
  %16 = alloca i64, align 8
  %17 = alloca ptr, align 8
  %18 = alloca i32, align 4
  store ptr %0, ptr %9, align 8, !tbaa !17
  store ptr %1, ptr %10, align 8, !tbaa !19
  store ptr %2, ptr %11, align 8, !tbaa !21
  store ptr %3, ptr %12, align 8, !tbaa !23
  store i64 %4, ptr %13, align 8, !tbaa !4
  store i16 %5, ptr %14, align 2, !tbaa !25
  store i64 %6, ptr %15, align 8, !tbaa !4
  store i64 %7, ptr %16, align 8, !tbaa !4
  %19 = load ptr, ptr %9, align 8
  %20 = getelementptr inbounds nuw %"class.rocksdb::RandomTransactionInserter", ptr %19, i32 0, i32 0
  %21 = load ptr, ptr %10, align 8, !tbaa !19
  store ptr %21, ptr %20, align 8, !tbaa !27
  %22 = getelementptr inbounds nuw %"class.rocksdb::RandomTransactionInserter", ptr %19, i32 0, i32 1
  %23 = load ptr, ptr %11, align 8, !tbaa !21
  call void @llvm.memcpy.p0.p0.i64(ptr align 8 %22, ptr align 8 %23, i64 32, i1 false), !tbaa.struct !54
  %24 = getelementptr inbounds nuw %"class.rocksdb::RandomTransactionInserter", ptr %19, i32 0, i32 2
  %25 = load ptr, ptr %12, align 8, !tbaa !23
  call void @_ZN7rocksdb11ReadOptionsC2ERKS0_(ptr noundef nonnull align 8 dereferenceable(168) %24, ptr noundef nonnull align 8 dereferenceable(168) %25)
  %26 = getelementptr inbounds nuw %"class.rocksdb::RandomTransactionInserter", ptr %19, i32 0, i32 3
  %27 = load i64, ptr %13, align 8, !tbaa !4
  store i64 %27, ptr %26, align 8, !tbaa !58
  %28 = getelementptr inbounds nuw %"class.rocksdb::RandomTransactionInserter", ptr %19, i32 0, i32 4
  %29 = load i16, ptr %14, align 2, !tbaa !25
  store i16 %29, ptr %28, align 8, !tbaa !59
  %30 = getelementptr inbounds nuw %"class.rocksdb::RandomTransactionInserter", ptr %19, i32 0, i32 5
  store i64 0, ptr %30, align 8, !tbaa !60
  %31 = getelementptr inbounds nuw %"class.rocksdb::RandomTransactionInserter", ptr %19, i32 0, i32 6
  store i64 0, ptr %31, align 8, !tbaa !61
  %32 = getelementptr inbounds nuw %"class.rocksdb::RandomTransactionInserter", ptr %19, i32 0, i32 7
  store i64 0, ptr %32, align 8, !tbaa !62
  %33 = getelementptr inbounds nuw %"class.rocksdb::RandomTransactionInserter", ptr %19, i32 0, i32 8
  invoke void @_ZN7rocksdb6StatusC2Ev(ptr noundef nonnull align 8 dereferenceable(16) %33)
          to label %34 unwind label %41

34:                                               ; preds = %8
  %35 = getelementptr inbounds nuw %"class.rocksdb::RandomTransactionInserter", ptr %19, i32 0, i32 9
  store ptr null, ptr %35, align 8, !tbaa !63
  %36 = getelementptr inbounds nuw %"class.rocksdb::RandomTransactionInserter", ptr %19, i32 0, i32 10
  store ptr null, ptr %36, align 8, !tbaa !64
  %37 = getelementptr inbounds nuw %"class.rocksdb::RandomTransactionInserter", ptr %19, i32 0, i32 11
  %38 = load i64, ptr %16, align 8, !tbaa !4
  store i64 %38, ptr %37, align 8, !tbaa !65
  %39 = getelementptr inbounds nuw %"class.rocksdb::RandomTransactionInserter", ptr %19, i32 0, i32 12
  %40 = load i64, ptr %15, align 8, !tbaa !4
  store i64 %40, ptr %39, align 8, !tbaa !66
  ret void

41:                                               ; preds = %8
  %42 = landingpad { ptr, i32 }
          cleanup
  %43 = extractvalue { ptr, i32 } %42, 0
  store ptr %43, ptr %17, align 8
  %44 = extractvalue { ptr, i32 } %42, 1
  store i32 %44, ptr %18, align 4
  call void @_ZN7rocksdb11ReadOptionsD2Ev(ptr noundef nonnull align 8 dereferenceable(168) %24) #20
  br label %45

45:                                               ; preds = %41
  %46 = load ptr, ptr %17, align 8
  %47 = load i32, ptr %18, align 4
  %48 = insertvalue { ptr, i32 } poison, ptr %46, 0
  %49 = insertvalue { ptr, i32 } %48, i32 %47, 1
  resume { ptr, i32 } %49
}