; Function Attrs: mustprogress uwtable
define void @_ZN7rocksdb25RandomTransactionInserterC2EPNS_8Random64ERKNS_12WriteOptionsERKNS_11ReadOptionsEmtmm(ptr noundef nonnull align 8 dereferenceable(296) initializes((0, 192)) %0, ptr noundef %1, ptr noundef nonnull readonly align 8 captures(none) dereferenceable(25) %2, ptr noundef nonnull align 8 dereferenceable(168) %3, i64 noundef %4, i16 noundef zeroext %5, i64 noundef %6, i64 noundef %7) unnamed_addr #1 align 2 personality ptr @__gxx_personality_v0 {
  store ptr %1, ptr %0, align 8, !tbaa !4
  %9 = getelementptr inbounds nuw i8, ptr %0, i64 8
  tail call void @llvm.memcpy.p0.p0.i64(ptr noundef nonnull align 8 dereferenceable(32) %9, ptr noundef nonnull align 8 dereferenceable(32) %2, i64 32, i1 false), !tbaa.struct !39
  %10 = getelementptr inbounds nuw i8, ptr %0, i64 40
  tail call void @llvm.memcpy.p0.p0.i64(ptr noundef nonnull align 8 dereferenceable(168) %10, ptr noundef nonnull align 8 dereferenceable(168) %3, i64 120, i1 false)
  %11 = getelementptr inbounds nuw i8, ptr %0, i64 160
  %12 = getelementptr inbounds nuw i8, ptr %0, i64 176
  %13 = getelementptr inbounds nuw i8, ptr %0, i64 184
  %14 = getelementptr inbounds nuw i8, ptr %3, i64 136
  tail call void @llvm.memset.p0.i64(ptr noundef nonnull align 8 dereferenceable(32) %11, i8 0, i64 32, i1 false)
  %15 = load ptr, ptr %14, align 8, !tbaa !44
  %.not.i.i.not.i.i = icmp eq ptr %15, null
  br i1 %.not.i.i.not.i.i, label %_ZN7rocksdb11ReadOptionsC2ERKS0_.exit, label %16

16:                                               ; preds = %8
  %17 = getelementptr inbounds nuw i8, ptr %3, i64 120
  %18 = invoke noundef zeroext i1 %15(ptr noundef nonnull align 8 dereferenceable(32) %11, ptr noundef nonnull align 8 dereferenceable(32) %17, i32 noundef 2)
          to label %19 unwind label %23

19:                                               ; preds = %16
  %20 = getelementptr inbounds nuw i8, ptr %3, i64 144
  %21 = load ptr, ptr %20, align 8, !tbaa !45
  store ptr %21, ptr %13, align 8, !tbaa !45
  %22 = load ptr, ptr %14, align 8, !tbaa !44
  store ptr %22, ptr %12, align 8, !tbaa !44
  br label %_ZN7rocksdb11ReadOptionsC2ERKS0_.exit

23:                                               ; preds = %16
  %24 = landingpad { ptr, i32 }
          cleanup
  %25 = load ptr, ptr %12, align 8, !tbaa !44
  %.not.i.i.i = icmp eq ptr %25, null
  br i1 %.not.i.i.i, label %_ZNSt14_Function_baseD2Ev.exit.i.i, label %26

26:                                               ; preds = %23
  %27 = invoke noundef zeroext i1 %25(ptr noundef nonnull align 8 dereferenceable(32) %11, ptr noundef nonnull align 8 dereferenceable(32) %11, i32 noundef 3)
          to label %_ZNSt14_Function_baseD2Ev.exit.i.i unwind label %28

28:                                               ; preds = %26
  %29 = landingpad { ptr, i32 }
          catch ptr null
  %30 = extractvalue { ptr, i32 } %29, 0
  tail call void @__clang_call_terminate(ptr %30) #22
  unreachable

_ZNSt14_Function_baseD2Ev.exit.i.i:               ; preds = %26, %23
  resume { ptr, i32 } %24

_ZN7rocksdb11ReadOptionsC2ERKS0_.exit:            ; preds = %8, %19
  %31 = getelementptr inbounds nuw i8, ptr %0, i64 192
  %32 = getelementptr inbounds nuw i8, ptr %3, i64 152
  tail call void @llvm.memcpy.p0.p0.i64(ptr noundef nonnull align 8 dereferenceable(16) %31, ptr noundef nonnull align 8 dereferenceable(16) %32, i64 16, i1 false)
  %33 = getelementptr inbounds nuw i8, ptr %0, i64 208
  store i64 %4, ptr %33, align 8, !tbaa !46
  %34 = getelementptr inbounds nuw i8, ptr %0, i64 216
  store i16 %5, ptr %34, align 8, !tbaa !47
  %35 = getelementptr inbounds nuw i8, ptr %0, i64 224
  %36 = getelementptr inbounds nuw i8, ptr %0, i64 256
  %37 = getelementptr inbounds nuw i8, ptr %0, i64 280
  tail call void @llvm.memset.p0.i64(ptr noundef nonnull align 8 dereferenceable(30) %35, i8 0, i64 30, i1 false)
  tail call void @llvm.memset.p0.i64(ptr noundef nonnull align 8 dereferenceable(24) %36, i8 0, i64 24, i1 false)
  store i64 %7, ptr %37, align 8, !tbaa !48
  %38 = getelementptr inbounds nuw i8, ptr %0, i64 288
  store i64 %6, ptr %38, align 8, !tbaa !49
  ret void
}